target datalayout = "e-m:e-p270:32:32-p271:32:32-p272:64:64-i64:64-i128:128-f80:128-n8:16:32:64-S128"
target triple = "x86_64-pc-linux-gnu"

%struct.string_list_item = type { ptr, ptr }

; Function Attrs: nounwind uwtable
define internal i32 @compare_by_counter(ptr noundef %0, ptr noundef %1) #0 {
  %3 = alloca ptr, align 8
  %4 = alloca ptr, align 8
  %5 = alloca ptr, align 8
  %6 = alloca ptr, align 8
  store ptr %0, ptr %3, align 8, !tbaa !147
  store ptr %1, ptr %4, align 8, !tbaa !147
  call void @llvm.lifetime.start.p0(i64 8, ptr %5) #10
  %7 = load ptr, ptr %3, align 8, !tbaa !147
  store ptr %7, ptr %5, align 8, !tbaa !52
  call void @llvm.lifetime.start.p0(i64 8, ptr %6) #10
  %8 = load ptr, ptr %4, align 8, !tbaa !147
  store ptr %8, ptr %6, align 8, !tbaa !52
  %9 = load ptr, ptr %6, align 8, !tbaa !52
  %10 = getelementptr inbounds nuw %struct.string_list_item, ptr %9, i32 0, i32 1
  %11 = load ptr, ptr %10, align 8, !tbaa !158
  %12 = ptrtoint ptr %11 to i64
  %13 = load ptr, ptr %5, align 8, !tbaa !52
  %14 = getelementptr inbounds nuw %struct.string_list_item, ptr %13, i32 0, i32 1
  %15 = load ptr, ptr %14, align 8, !tbaa !158
  %16 = ptrtoint ptr %15 to i64
  %17 = sub nsw i64 %12, %16
  %18 = trunc i64 %17 to i32
  call void @llvm.lifetime.end.p0(i64 8, ptr %6) #10
  call void @llvm.lifetime.end.p0(i64 8, ptr %5) #10
  ret i32 %18
}